target datalayout = "e-m:e-p270:32:32-p271:32:32-p272:64:64-i64:64-i128:128-f80:128-n8:16:32:64-S128"
target triple = "x86_64-pc-linux-gnu"

%"struct.LightGBM::Tree::PathElement" = type { i32, double, double, double }

; Function Attrs: mustprogress nounwind uwtable
define noundef double @_ZN8LightGBM4Tree14UnwoundPathSumEPKNS0_11PathElementEii(ptr noundef %0, i32 noundef %1, i32 noundef %2) #0 align 2 {
  %4 = alloca ptr, align 8
  %5 = alloca i32, align 4
  %6 = alloca i32, align 4
  %7 = alloca double, align 8
  %8 = alloca double, align 8
  %9 = alloca double, align 8
  %10 = alloca double, align 8
  %11 = alloca i32, align 4
  %12 = alloca double, align 8
  store ptr %0, ptr %4, align 8, !tbaa !1531
  store i32 %1, ptr %5, align 4, !tbaa !13
  store i32 %2, ptr %6, align 4, !tbaa !13
  call void @llvm.lifetime.start.p0(i64 8, ptr %7) #7
  %13 = load ptr, ptr %4, align 8, !tbaa !1531
  %14 = load i32, ptr %6, align 4, !tbaa !13
  %15 = sext i32 %14 to i64
  %16 = getelementptr inbounds %"struct.LightGBM::Tree::PathElement", ptr %13, i64 %15
  %17 = getelementptr inbounds nuw %"struct.LightGBM::Tree::PathElement", ptr %16, i32 0, i32 2
  %18 = load double, ptr %17, align 8, !tbaa !1536
  store double %18, ptr %7, align 8, !tbaa !57
  call void @llvm.lifetime.start.p0(i64 8, ptr %8) #7
  %19 = load ptr, ptr %4, align 8, !tbaa !1531
  %20 = load i32, ptr %6, align 4, !tbaa !13
  %21 = sext i32 %20 to i64
  %22 = getelementptr inbounds %"struct.LightGBM::Tree::PathElement", ptr %19, i64 %21
  %23 = getelementptr inbounds nuw %"struct.LightGBM::Tree::PathElement", ptr %22, i32 0, i32 1
  %24 = load double, ptr %23, align 8, !tbaa !1535
  store double %24, ptr %8, align 8, !tbaa !57
  call void @llvm.lifetime.start.p0(i64 8, ptr %9) #7
  %25 = load ptr, ptr %4, align 8, !tbaa !1531
  %26 = load i32, ptr %5, align 4, !tbaa !13
  %27 = sext i32 %26 to i64
  %28 = getelementptr inbounds %"struct.LightGBM::Tree::PathElement", ptr %25, i64 %27
  %29 = getelementptr inbounds nuw %"struct.LightGBM::Tree::PathElement", ptr %28, i32 0, i32 3
  %30 = load double, ptr %29, align 8, !tbaa !1537
  store double %30, ptr %9, align 8, !tbaa !57
  call void @llvm.lifetime.start.p0(i64 8, ptr %10) #7
  store double 0.000000e+00, ptr %10, align 8, !tbaa !57
  call void @llvm.lifetime.start.p0(i64 4, ptr %11) #7
  %31 = load i32, ptr %5, align 4, !tbaa !13
  %32 = sub nsw i32 %31, 1
  store i32 %32, ptr %11, align 4, !tbaa !13
  br label %33

33:                                               ; preds = %95, %3
  %34 = load i32, ptr %11, align 4, !tbaa !13
  %35 = icmp sge i32 %34, 0
  br i1 %35, label %37, label %36

36:                                               ; preds = %33
  call void @llvm.lifetime.end.p0(i64 4, ptr %11) #7
  br label %98

37:                                               ; preds = %33
  %38 = load double, ptr %7, align 8, !tbaa !57
  %39 = fcmp une double %38, 0.000000e+00
  br i1 %39, label %40, label %74

40:                                               ; preds = %37
  call void @llvm.lifetime.start.p0(i64 8, ptr %12) #7
  %41 = load double, ptr %9, align 8, !tbaa !57
  %42 = load i32, ptr %5, align 4, !tbaa !13
  %43 = add nsw i32 %42, 1
  %44 = sitofp i32 %43 to double
  %45 = fmul double %41, %44
  %46 = load i32, ptr %11, align 4, !tbaa !13
  %47 = add nsw i32 %46, 1
  %48 = sitofp i32 %47 to double
  %49 = load double, ptr %7, align 8, !tbaa !57
  %50 = fmul double %48, %49
  %51 = fdiv double %45, %50
  store double %51, ptr %12, align 8, !tbaa !57
  %52 = load double, ptr %12, align 8, !tbaa !57
  %53 = load double, ptr %10, align 8, !tbaa !57
  %54 = fadd double %53, %52
  store double %54, ptr %10, align 8, !tbaa !57
  %55 = load ptr, ptr %4, align 8, !tbaa !1531
  %56 = load i32, ptr %11, align 4, !tbaa !13
  %57 = sext i32 %56 to i64
  %58 = getelementptr inbounds %"struct.LightGBM::Tree::PathElement", ptr %55, i64 %57
  %59 = getelementptr inbounds nuw %"struct.LightGBM::Tree::PathElement", ptr %58, i32 0, i32 3
  %60 = load double, ptr %59, align 8, !tbaa !1537
  %61 = load double, ptr %12, align 8, !tbaa !57
  %62 = load double, ptr %8, align 8, !tbaa !57
  %63 = fmul double %61, %62
  %64 = load i32, ptr %5, align 4, !tbaa !13
  %65 = load i32, ptr %11, align 4, !tbaa !13
  %66 = sub nsw i32 %64, %65
  %67 = sitofp i32 %66 to double
  %68 = load i32, ptr %5, align 4, !tbaa !13
  %69 = add nsw i32 %68, 1
  %70 = sitofp i32 %69 to double
  %71 = fdiv double %67, %70
  %72 = fneg double %63
  %73 = call double @llvm.fmuladd.f64(double %72, double %71, double %60)
  store double %73, ptr %9, align 8, !tbaa !57
  call void @llvm.lifetime.end.p0(i64 8, ptr %12) #7
  br label %94

74:                                               ; preds = %37
  %75 = load ptr, ptr %4, align 8, !tbaa !1531
  %76 = load i32, ptr %11, align 4, !tbaa !13
  %77 = sext i32 %76 to i64
  %78 = getelementptr inbounds %"struct.LightGBM::Tree::PathElement", ptr %75, i64 %77
  %79 = getelementptr inbounds nuw %"struct.LightGBM::Tree::PathElement", ptr %78, i32 0, i32 3
  %80 = load double, ptr %79, align 8, !tbaa !1537
  %81 = load double, ptr %8, align 8, !tbaa !57
  %82 = fdiv double %80, %81
  %83 = load i32, ptr %5, align 4, !tbaa !13
  %84 = load i32, ptr %11, align 4, !tbaa !13
  %85 = sub nsw i32 %83, %84
  %86 = sitofp i32 %85 to double
  %87 = load i32, ptr %5, align 4, !tbaa !13
  %88 = add nsw i32 %87, 1
  %89 = sitofp i32 %88 to double
  %90 = fdiv double %86, %89
  %91 = fdiv double %82, %90
  %92 = load double, ptr %10, align 8, !tbaa !57
  %93 = fadd double %92, %91
  store double %93, ptr %10, align 8, !tbaa !57
  br label %94

94:                                               ; preds = %74, %40
  br label %95

95:                                               ; preds = %94
  %96 = load i32, ptr %11, align 4, !tbaa !13
  %97 = add nsw i32 %96, -1
  store i32 %97, ptr %11, align 4, !tbaa !13
  br label %33, !llvm.loop !1541

98:                                               ; preds = %36
  %99 = load double, ptr %10, align 8, !tbaa !57
  call void @llvm.lifetime.end.p0(i64 8, ptr %10) #7
  call void @llvm.lifetime.end.p0(i64 8, ptr %9) #7
  call void @llvm.lifetime.end.p0(i64 8, ptr %8) #7
  call void @llvm.lifetime.end.p0(i64 8, ptr %7) #7
  ret double %99
}