; Function Attrs: mustprogress nofree norecurse nosync nounwind willreturn memory(argmem: read) uwtable
define noundef double @_ZN8LightGBM4Tree14UnwoundPathSumEPKNS0_11PathElementEii(ptr noundef readonly captures(none) %0, i32 noundef %1, i32 noundef %2) local_unnamed_addr #35 align 2 {
  %4 = sext i32 %2 to i64
  %5 = getelementptr inbounds %"struct.LightGBM::Tree::PathElement", ptr %0, i64 %4
  %6 = getelementptr inbounds nuw i8, ptr %5, i64 16
  %7 = load double, ptr %6, align 8, !tbaa !1057
  %8 = getelementptr inbounds nuw i8, ptr %5, i64 8
  %9 = load double, ptr %8, align 8, !tbaa !1056
  %10 = icmp sgt i32 %1, 0
  br i1 %10, label %.lr.ph, label %._crit_edge

.lr.ph:                                           ; preds = %3
  %.03034 = add nsw i32 %1, -1
  %11 = fcmp une double %7, 0.000000e+00
  %12 = add nuw nsw i32 %1, 1
  %13 = uitofp nneg i32 %12 to double
  %14 = fneg double %9
  br i1 %11, label %.lr.ph.split.us.preheader, label %.lr.ph.split.preheader

.lr.ph.split.preheader:                           ; preds = %.lr.ph
  %15 = zext nneg i32 %.03034 to i64
  br label %.lr.ph.split

.lr.ph.split.us.preheader:                        ; preds = %.lr.ph
  %16 = zext nneg i32 %1 to i64
  %17 = getelementptr inbounds nuw %"struct.LightGBM::Tree::PathElement", ptr %0, i64 %16, i32 3
  %18 = load double, ptr %17, align 8, !tbaa !1058
  %19 = zext nneg i32 %.03034 to i64
  br label %.lr.ph.split.us

.lr.ph.split.us:                                  ; preds = %.lr.ph.split.us.preheader, %.lr.ph.split.us
  %indvars.iv41 = phi i64 [ %19, %.lr.ph.split.us.preheader ], [ %indvars.iv.next42, %.lr.ph.split.us ]
  %.037.us = phi double [ %18, %.lr.ph.split.us.preheader ], [ %31, %.lr.ph.split.us ]
  %.030.in36.us = phi i32 [ %1, %.lr.ph.split.us.preheader ], [ %32, %.lr.ph.split.us ]
  %.03135.us = phi double [ 0.000000e+00, %.lr.ph.split.us.preheader ], [ %.132.us, %.lr.ph.split.us ]
  %20 = fmul double %.037.us, %13
  %21 = uitofp nneg i32 %.030.in36.us to double
  %22 = fmul double %7, %21
  %23 = fdiv double %20, %22
  %24 = getelementptr inbounds nuw %"struct.LightGBM::Tree::PathElement", ptr %0, i64 %indvars.iv41, i32 3
  %25 = load double, ptr %24, align 8, !tbaa !1058
  %26 = trunc i64 %indvars.iv41 to i32
  %27 = sub i32 %1, %26
  %28 = sitofp i32 %27 to double
  %29 = fdiv double %28, %13
  %30 = fmul double %23, %14
  %31 = tail call double @llvm.fmuladd.f64(double %30, double %29, double %25)
  %.132.us = fadd double %.03135.us, %23
  %indvars.iv.next42 = add nsw i64 %indvars.iv41, -1
  %.not45 = icmp eq i64 %indvars.iv41, 0
  %32 = trunc nuw nsw i64 %indvars.iv41 to i32
  br i1 %.not45, label %._crit_edge, label %.lr.ph.split.us, !llvm.loop !1062

._crit_edge:                                      ; preds = %.lr.ph.split, %.lr.ph.split.us, %3
  %.031.lcssa = phi double [ 0.000000e+00, %3 ], [ %.132.us, %.lr.ph.split.us ], [ %.132, %.lr.ph.split ]
  ret double %.031.lcssa

.lr.ph.split:                                     ; preds = %.lr.ph.split.preheader, %.lr.ph.split
  %indvars.iv = phi i64 [ %15, %.lr.ph.split.preheader ], [ %indvars.iv.next, %.lr.ph.split ]
  %.03135 = phi double [ 0.000000e+00, %.lr.ph.split.preheader ], [ %.132, %.lr.ph.split ]
  %33 = getelementptr inbounds nuw %"struct.LightGBM::Tree::PathElement", ptr %0, i64 %indvars.iv, i32 3
  %34 = load double, ptr %33, align 8, !tbaa !1058
  %35 = fdiv double %34, %9
  %36 = trunc i64 %indvars.iv to i32
  %37 = sub i32 %1, %36
  %38 = sitofp i32 %37 to double
  %39 = fdiv double %38, %13
  %40 = fdiv double %35, %39
  %.132 = fadd double %.03135, %40
  %indvars.iv.next = add nsw i64 %indvars.iv, -1
  %.not = icmp eq i64 %indvars.iv, 0
  br i1 %.not, label %._crit_edge, label %.lr.ph.split, !llvm.loop !1062
}